---
triple:          'arm64-apple-darwin'
binary-path:     '/Users/lucaerbi/Desktop/Code/INF280/W6/B/main'
relocations:
  - { offsetInCU: 0xBA, offset: 0xBA, size: 0x8, addend: 0x0, symName: __ZnwmPv, symObjAddr: 0x0, symBinAddr: 0x1000044A0, symSize: 0x18 }
  - { offsetInCU: 0x20AD, offset: 0x20AD, size: 0x8, addend: 0x0, symName: __ZSt19piecewise_construct, symObjAddr: 0x1EA8, symBinAddr: 0x100006930, symSize: 0x0 }
  - { offsetInCU: 0x342B, offset: 0x342B, size: 0x8, addend: 0x0, symName: __ZStL8__ioinit, symObjAddr: 0x26B60, symBinAddr: 0x10000C060, symSize: 0x0 }
  - { offsetInCU: 0x3B46, offset: 0x3B46, size: 0x8, addend: 0x0, symName: __ZL4MAXS, symObjAddr: 0x1EAC, symBinAddr: 0x100006934, symSize: 0x0 }
  - { offsetInCU: 0x3B60, offset: 0x3B60, size: 0x8, addend: 0x0, symName: __ZL4MAXT, symObjAddr: 0x1EB0, symBinAddr: 0x100006938, symSize: 0x0 }
  - { offsetInCU: 0x3B96, offset: 0x3B96, size: 0x8, addend: 0x0, symName: _letters, symObjAddr: 0x26B61, symBinAddr: 0x10000C061, symSize: 0x0 }
  - { offsetInCU: 0x7B0B, offset: 0x7B0B, size: 0x8, addend: 0x0, symName: __ZNSt8__detail30__integer_to_chars_is_unsignedIjEE, symObjAddr: 0x1EB8, symBinAddr: 0x100006940, symSize: 0x0 }
  - { offsetInCU: 0x7B25, offset: 0x7B25, size: 0x8, addend: 0x0, symName: __ZNSt8__detail30__integer_to_chars_is_unsignedImEE, symObjAddr: 0x1EB9, symBinAddr: 0x100006941, symSize: 0x0 }
  - { offsetInCU: 0x7B3F, offset: 0x7B3F, size: 0x8, addend: 0x0, symName: __ZNSt8__detail30__integer_to_chars_is_unsignedIyEE, symObjAddr: 0x1EBA, symBinAddr: 0x100006942, symSize: 0x0 }
  - { offsetInCU: 0x7B7C, offset: 0x7B7C, size: 0x8, addend: 0x0, symName: __GLOBAL__sub_I_main.cpp, symObjAddr: 0x1E90, symBinAddr: 0x100006330, symSize: 0x14 }
  - { offsetInCU: 0x7BA8, offset: 0x7BA8, size: 0x8, addend: 0x0, symName: __Z41__static_initialization_and_destruction_0v, symObjAddr: 0x1E54, symBinAddr: 0x1000062F4, symSize: 0x3C }
  - { offsetInCU: 0x7BB0, offset: 0x7BB0, size: 0x8, addend: 0x0, symName: __GLOBAL__sub_I_main.cpp, symObjAddr: 0x1E90, symBinAddr: 0x100006330, symSize: 0x14 }
  - { offsetInCU: 0x7B9B, offset: 0x7B9B, size: 0x8, addend: 0x0, symName: __ZNSt10_Head_baseILm0ERKcLb0EE7_M_headERS2_, symObjAddr: 0x1E3C, symBinAddr: 0x1000062DC, symSize: 0x18 }
  - { offsetInCU: 0x7BA3, offset: 0x7BA3, size: 0x8, addend: 0x0, symName: __Z41__static_initialization_and_destruction_0v, symObjAddr: 0x1E54, symBinAddr: 0x1000062F4, symSize: 0x3C }
  - { offsetInCU: 0x7BCC, offset: 0x7BCC, size: 0x8, addend: 0x0, symName: __ZNSt11_Tuple_implILm0EJRKcEE7_M_headERS2_, symObjAddr: 0x1E20, symBinAddr: 0x1000062C0, symSize: 0x1C }
  - { offsetInCU: 0x7BD4, offset: 0x7BD4, size: 0x8, addend: 0x0, symName: __ZNSt10_Head_baseILm0ERKcLb0EE7_M_headERS2_, symObjAddr: 0x1E3C, symBinAddr: 0x1000062DC, symSize: 0x18 }
  - { offsetInCU: 0x7C62, offset: 0x7C62, size: 0x8, addend: 0x0, symName: __ZSt12__get_helperILm0ERKcJEERT0_RSt11_Tuple_implIXT_EJS2_DpT1_EE, symObjAddr: 0x1E04, symBinAddr: 0x1000062A4, symSize: 0x1C }
  - { offsetInCU: 0x7C6A, offset: 0x7C6A, size: 0x8, addend: 0x0, symName: __ZNSt11_Tuple_implILm0EJRKcEE7_M_headERS2_, symObjAddr: 0x1E20, symBinAddr: 0x1000062C0, symSize: 0x1C }
  - { offsetInCU: 0x7CAC, offset: 0x7CAC, size: 0x8, addend: 0x0, symName: __ZSt7forwardIRKcEOT_RNSt16remove_referenceIS2_E4typeE, symObjAddr: 0x1DF0, symBinAddr: 0x100006290, symSize: 0x14 }
  - { offsetInCU: 0x7CB4, offset: 0x7CB4, size: 0x8, addend: 0x0, symName: __ZSt12__get_helperILm0ERKcJEERT0_RSt11_Tuple_implIXT_EJS2_DpT1_EE, symObjAddr: 0x1E04, symBinAddr: 0x1000062A4, symSize: 0x1C }
  - { offsetInCU: 0x7D12, offset: 0x7D12, size: 0x8, addend: 0x0, symName: __ZSt3getILm0EJRKcEERNSt13tuple_elementIXT_ESt5tupleIJDpT0_EEE4typeERS6_, symObjAddr: 0x1DD4, symBinAddr: 0x100006274, symSize: 0x1C }
  - { offsetInCU: 0x7D1A, offset: 0x7D1A, size: 0x8, addend: 0x0, symName: __ZSt7forwardIRKcEOT_RNSt16remove_referenceIS2_E4typeE, symObjAddr: 0x1DF0, symBinAddr: 0x100006290, symSize: 0x14 }
  - { offsetInCU: 0x7DF5, offset: 0x7DF5, size: 0x8, addend: 0x0, symName: __ZNSt4pairIKciEC1IJRS0_EJLm0EEJEJEEERSt5tupleIJDpT_EERS4_IJDpT1_EESt12_Index_tupleIJXspT0_EEESD_IJXspT2_EEE, symObjAddr: 0x1D8C, symBinAddr: 0x10000622C, symSize: 0x48 }
  - { offsetInCU: 0x7DFD, offset: 0x7DFD, size: 0x8, addend: 0x0, symName: __ZSt3getILm0EJRKcEERNSt13tuple_elementIXT_ESt5tupleIJDpT0_EEE4typeERS6_, symObjAddr: 0x1DD4, symBinAddr: 0x100006274, symSize: 0x1C }
  - { offsetInCU: 0x7EC0, offset: 0x7EC0, size: 0x8, addend: 0x0, symName: __ZNSt4pairIKciEC1IJRS0_EJEEESt21piecewise_construct_tSt5tupleIJDpT_EES5_IJDpT0_EE, symObjAddr: 0x1D50, symBinAddr: 0x1000061F0, symSize: 0x3C }
  - { offsetInCU: 0x7EC8, offset: 0x7EC8, size: 0x8, addend: 0x0, symName: __ZNSt4pairIKciEC1IJRS0_EJLm0EEJEJEEERSt5tupleIJDpT_EERS4_IJDpT1_EESt12_Index_tupleIJXspT0_EEESD_IJXspT2_EEE, symObjAddr: 0x1D8C, symBinAddr: 0x10000622C, symSize: 0x48 }
  - { offsetInCU: 0x7F24, offset: 0x7F24, size: 0x8, addend: 0x0, symName: __ZNSt11_Tuple_implILm0EJRKcEEC2EOS2_, symObjAddr: 0x1D28, symBinAddr: 0x1000061C8, symSize: 0x28 }
  - { offsetInCU: 0x7F2C, offset: 0x7F2C, size: 0x8, addend: 0x0, symName: __ZNSt4pairIKciEC1IJRS0_EJEEESt21piecewise_construct_tSt5tupleIJDpT_EES5_IJDpT0_EE, symObjAddr: 0x1D50, symBinAddr: 0x1000061F0, symSize: 0x3C }
  - { offsetInCU: 0x7F93, offset: 0x7F93, size: 0x8, addend: 0x0, symName: __ZSteqIKciEbRKSt4pairIT_T0_ES6_, symObjAddr: 0x1CD8, symBinAddr: 0x100006178, symSize: 0x50 }
  - { offsetInCU: 0x7F9B, offset: 0x7F9B, size: 0x8, addend: 0x0, symName: __ZNSt11_Tuple_implILm0EJRKcEEC2EOS2_, symObjAddr: 0x1D28, symBinAddr: 0x1000061C8, symSize: 0x28 }
  - { offsetInCU: 0x7FBF, offset: 0x7FBF, size: 0x8, addend: 0x0, symName: __ZNKSt23_Rb_tree_const_iteratorISt4pairIKciEEdeEv, symObjAddr: 0x1CB8, symBinAddr: 0x100006158, symSize: 0x20 }
  - { offsetInCU: 0x7FC7, offset: 0x7FC7, size: 0x8, addend: 0x0, symName: __ZSteqIKciEbRKSt4pairIT_T0_ES6_, symObjAddr: 0x1CD8, symBinAddr: 0x100006178, symSize: 0x50 }
  - { offsetInCU: 0x7FEE, offset: 0x7FEE, size: 0x8, addend: 0x0, symName: __ZNSt23_Rb_tree_const_iteratorISt4pairIKciEEppEv, symObjAddr: 0x1C88, symBinAddr: 0x100006128, symSize: 0x30 }
  - { offsetInCU: 0x7FF6, offset: 0x7FF6, size: 0x8, addend: 0x0, symName: __ZNKSt23_Rb_tree_const_iteratorISt4pairIKciEEdeEv, symObjAddr: 0x1CB8, symBinAddr: 0x100006158, symSize: 0x20 }
  - { offsetInCU: 0x805B, offset: 0x805B, size: 0x8, addend: 0x0, symName: __ZStneRKSt23_Rb_tree_const_iteratorISt4pairIKciEES5_, symObjAddr: 0x1C58, symBinAddr: 0x1000060F8, symSize: 0x30 }
  - { offsetInCU: 0x8063, offset: 0x8063, size: 0x8, addend: 0x0, symName: __ZNSt23_Rb_tree_const_iteratorISt4pairIKciEEppEv, symObjAddr: 0x1C88, symBinAddr: 0x100006128, symSize: 0x30 }
  - { offsetInCU: 0x807E, offset: 0x807E, size: 0x8, addend: 0x0, symName: __ZNK9__gnu_cxx16__aligned_membufISt4pairIKciEE7_M_addrEv, symObjAddr: 0x1C44, symBinAddr: 0x1000060E4, symSize: 0x14 }
  - { offsetInCU: 0x8086, offset: 0x8086, size: 0x8, addend: 0x0, symName: __ZStneRKSt23_Rb_tree_const_iteratorISt4pairIKciEES5_, symObjAddr: 0x1C58, symBinAddr: 0x1000060F8, symSize: 0x30 }
  - { offsetInCU: 0x8178, offset: 0x8178, size: 0x8, addend: 0x0, symName: __ZNSt5tupleIJRKcEEC1EOS2_, symObjAddr: 0x1C1C, symBinAddr: 0x1000060BC, symSize: 0x28 }
  - { offsetInCU: 0x8180, offset: 0x8180, size: 0x8, addend: 0x0, symName: __ZNK9__gnu_cxx16__aligned_membufISt4pairIKciEE7_M_addrEv, symObjAddr: 0x1C44, symBinAddr: 0x1000060E4, symSize: 0x14 }
  - { offsetInCU: 0x8198, offset: 0x8198, size: 0x8, addend: 0x0, symName: __ZNSt15__new_allocatorISt13_Rb_tree_nodeISt4pairIKciEEE8allocateEmPKv, symObjAddr: 0x1B8C, symBinAddr: 0x10000602C, symSize: 0x90 }
  - { offsetInCU: 0x81A0, offset: 0x81A0, size: 0x8, addend: 0x0, symName: __ZNSt5tupleIJRKcEEC1EOS2_, symObjAddr: 0x1C1C, symBinAddr: 0x1000060BC, symSize: 0x28 }
  - { offsetInCU: 0x821E, offset: 0x821E, size: 0x8, addend: 0x0, symName: __ZNSt7__equalILb0EE5equalISt23_Rb_tree_const_iteratorISt4pairIKciEES6_EEbT_S7_T0_, symObjAddr: 0x1AF4, symBinAddr: 0x100005F94, symSize: 0x98 }
  - { offsetInCU: 0x8226, offset: 0x8226, size: 0x8, addend: 0x0, symName: __ZNSt15__new_allocatorISt13_Rb_tree_nodeISt4pairIKciEEE8allocateEmPKv, symObjAddr: 0x1B8C, symBinAddr: 0x10000602C, symSize: 0x90 }
  - { offsetInCU: 0x8292, offset: 0x8292, size: 0x8, addend: 0x0, symName: __ZNK9__gnu_cxx16__aligned_membufISt4pairIKciEE6_M_ptrEv, symObjAddr: 0x1AD8, symBinAddr: 0x100005F78, symSize: 0x1C }
  - { offsetInCU: 0x829A, offset: 0x829A, size: 0x8, addend: 0x0, symName: __ZNSt7__equalILb0EE5equalISt23_Rb_tree_const_iteratorISt4pairIKciEES6_EEbT_S7_T0_, symObjAddr: 0x1AF4, symBinAddr: 0x100005F94, symSize: 0x98 }
  - { offsetInCU: 0x8354, offset: 0x8354, size: 0x8, addend: 0x0, symName: __ZSt7forwardIRPSt13_Rb_tree_nodeISt4pairIKciEEEOT_RNSt16remove_referenceIS7_E4typeE, symObjAddr: 0x1AC4, symBinAddr: 0x100005F64, symSize: 0x14 }
  - { offsetInCU: 0x835C, offset: 0x835C, size: 0x8, addend: 0x0, symName: __ZNK9__gnu_cxx16__aligned_membufISt4pairIKciEE6_M_ptrEv, symObjAddr: 0x1AD8, symBinAddr: 0x100005F78, symSize: 0x1C }
  - { offsetInCU: 0x83C8, offset: 0x83C8, size: 0x8, addend: 0x0, symName: __ZNSt15__new_allocatorISt13_Rb_tree_nodeISt4pairIKciEEE10deallocateEPS4_m, symObjAddr: 0x1A88, symBinAddr: 0x100005F28, symSize: 0x3C }
  - { offsetInCU: 0x83D0, offset: 0x83D0, size: 0x8, addend: 0x0, symName: __ZSt7forwardIRPSt13_Rb_tree_nodeISt4pairIKciEEEOT_RNSt16remove_referenceIS7_E4typeE, symObjAddr: 0x1AC4, symBinAddr: 0x100005F64, symSize: 0x14 }
  - { offsetInCU: 0x8526, offset: 0x8526, size: 0x8, addend: 0x0, symName: __ZSt12__equal_aux1ISt23_Rb_tree_const_iteratorISt4pairIKciEES4_EbT_S5_T0_, symObjAddr: 0x1A54, symBinAddr: 0x100005EF4, symSize: 0x34 }
  - { offsetInCU: 0x852E, offset: 0x852E, size: 0x8, addend: 0x0, symName: __ZNSt15__new_allocatorISt13_Rb_tree_nodeISt4pairIKciEEE10deallocateEPS4_m, symObjAddr: 0x1A88, symBinAddr: 0x100005F28, symSize: 0x3C }
  - { offsetInCU: 0x8579, offset: 0x8579, size: 0x8, addend: 0x0, symName: __ZSt12__niter_baseISt23_Rb_tree_const_iteratorISt4pairIKciEEET_S5_, symObjAddr: 0x1A40, symBinAddr: 0x100005EE0, symSize: 0x14 }
  - { offsetInCU: 0x8581, offset: 0x8581, size: 0x8, addend: 0x0, symName: __ZSt12__equal_aux1ISt23_Rb_tree_const_iteratorISt4pairIKciEES4_EbT_S5_T0_, symObjAddr: 0x1A54, symBinAddr: 0x100005EF4, symSize: 0x34 }
  - { offsetInCU: 0x8534, offset: 0x8534, size: 0x8, addend: 0x0, symName: __ZNKSt10_Select1stISt4pairIKciEEclERKS2_, symObjAddr: 0x1A28, symBinAddr: 0x100005EC8, symSize: 0x18 }
  - { offsetInCU: 0x853C, offset: 0x853C, size: 0x8, addend: 0x0, symName: __ZSt12__niter_baseISt23_Rb_tree_const_iteratorISt4pairIKciEEET_S5_, symObjAddr: 0x1A40, symBinAddr: 0x100005EE0, symSize: 0x14 }
  - { offsetInCU: 0x8577, offset: 0x8577, size: 0x8, addend: 0x0, symName: __ZNKSt13_Rb_tree_nodeISt4pairIKciEE9_M_valptrEv, symObjAddr: 0x1A08, symBinAddr: 0x100005EA8, symSize: 0x20 }
  - { offsetInCU: 0x857F, offset: 0x857F, size: 0x8, addend: 0x0, symName: __ZNKSt10_Select1stISt4pairIKciEEclERKS2_, symObjAddr: 0x1A28, symBinAddr: 0x100005EC8, symSize: 0x18 }
  - { offsetInCU: 0x8618, offset: 0x8618, size: 0x8, addend: 0x0, symName: __ZSt7forwardIRPSt18_Rb_tree_node_baseEOT_RNSt16remove_referenceIS3_E4typeE, symObjAddr: 0x19F4, symBinAddr: 0x100005E94, symSize: 0x14 }
  - { offsetInCU: 0x8620, offset: 0x8620, size: 0x8, addend: 0x0, symName: __ZNKSt13_Rb_tree_nodeISt4pairIKciEE9_M_valptrEv, symObjAddr: 0x1A08, symBinAddr: 0x100005EA8, symSize: 0x20 }
  - { offsetInCU: 0x86A6, offset: 0x86A6, size: 0x8, addend: 0x0, symName: __ZNSt4pairIPSt18_Rb_tree_node_baseS1_EC1IRPSt13_Rb_tree_nodeIS_IKciEERS1_Lb1EEEOT_OT0_, symObjAddr: 0x19AC, symBinAddr: 0x100005E4C, symSize: 0x48 }
  - { offsetInCU: 0x86AE, offset: 0x86AE, size: 0x8, addend: 0x0, symName: __ZSt7forwardIRPSt18_Rb_tree_node_baseEOT_RNSt16remove_referenceIS3_E4typeE, symObjAddr: 0x19F4, symBinAddr: 0x100005E94, symSize: 0x14 }
  - { offsetInCU: 0x86AF, offset: 0x86AF, size: 0x8, addend: 0x0, symName: __ZNSt8_Rb_treeIcSt4pairIKciESt10_Select1stIS2_ESt4lessIcESaIS2_EE17_M_construct_nodeIJRKSt21piecewise_construct_tSt5tupleIJRS1_EESD_IJEEEEEvPSt13_Rb_tree_nodeIS2_EDpOT_, symObjAddr: 0x1830, symBinAddr: 0x100005CD0, symSize: 0x17C }
  - { offsetInCU: 0x86B7, offset: 0x86B7, size: 0x8, addend: 0x0, symName: __ZNSt4pairIPSt18_Rb_tree_node_baseS1_EC1IRPSt13_Rb_tree_nodeIS_IKciEERS1_Lb1EEEOT_OT0_, symObjAddr: 0x19AC, symBinAddr: 0x100005E4C, symSize: 0x48 }
  - { offsetInCU: 0x87F0, offset: 0x87F0, size: 0x8, addend: 0x0, symName: __ZNSt8_Rb_treeIcSt4pairIKciESt10_Select1stIS2_ESt4lessIcESaIS2_EE11_M_get_nodeEv, symObjAddr: 0x17F4, symBinAddr: 0x100005C94, symSize: 0x3C }
  - { offsetInCU: 0x87F8, offset: 0x87F8, size: 0x8, addend: 0x0, symName: __ZNSt8_Rb_treeIcSt4pairIKciESt10_Select1stIS2_ESt4lessIcESaIS2_EE17_M_construct_nodeIJRKSt21piecewise_construct_tSt5tupleIJRS1_EESD_IJEEEEEvPSt13_Rb_tree_nodeIS2_EDpOT_, symObjAddr: 0x1830, symBinAddr: 0x100005CD0, symSize: 0x17C }
  - { offsetInCU: 0x88C9, offset: 0x88C9, size: 0x8, addend: 0x0, symName: __ZNSt8_Rb_treeIcSt4pairIKciESt10_Select1stIS2_ESt4lessIcESaIS2_EE21_M_get_Node_allocatorEv, symObjAddr: 0x17E0, symBinAddr: 0x100005C80, symSize: 0x14 }
  - { offsetInCU: 0x88D1, offset: 0x88D1, size: 0x8, addend: 0x0, symName: __ZNSt8_Rb_treeIcSt4pairIKciESt10_Select1stIS2_ESt4lessIcESaIS2_EE11_M_get_nodeEv, symObjAddr: 0x17F4, symBinAddr: 0x100005C94, symSize: 0x3C }
  - { offsetInCU: 0x89C9, offset: 0x89C9, size: 0x8, addend: 0x0, symName: __ZSt11__equal_auxISt23_Rb_tree_const_iteratorISt4pairIKciEES4_EbT_S5_T0_, symObjAddr: 0x1788, symBinAddr: 0x100005C28, symSize: 0x58 }
  - { offsetInCU: 0x89D1, offset: 0x89D1, size: 0x8, addend: 0x0, symName: __ZNSt8_Rb_treeIcSt4pairIKciESt10_Select1stIS2_ESt4lessIcESaIS2_EE21_M_get_Node_allocatorEv, symObjAddr: 0x17E0, symBinAddr: 0x100005C80, symSize: 0x14 }
  - { offsetInCU: 0x89EB, offset: 0x89EB, size: 0x8, addend: 0x0, symName: __ZNSt23_Rb_tree_const_iteratorISt4pairIKciEEC1EPKSt18_Rb_tree_node_base, symObjAddr: 0x1764, symBinAddr: 0x100005C04, symSize: 0x24 }
  - { offsetInCU: 0x89F3, offset: 0x89F3, size: 0x8, addend: 0x0, symName: __ZSt11__equal_auxISt23_Rb_tree_const_iteratorISt4pairIKciEES4_EbT_S5_T0_, symObjAddr: 0x1788, symBinAddr: 0x100005C28, symSize: 0x58 }
  - { offsetInCU: 0x89E1, offset: 0x89E1, size: 0x8, addend: 0x0, symName: __ZN9__gnu_cxx16__aligned_membufISt4pairIKciEE7_M_addrEv, symObjAddr: 0x1750, symBinAddr: 0x100005BF0, symSize: 0x14 }
  - { offsetInCU: 0x89E9, offset: 0x89E9, size: 0x8, addend: 0x0, symName: __ZNSt23_Rb_tree_const_iteratorISt4pairIKciEEC1EPKSt18_Rb_tree_node_base, symObjAddr: 0x1764, symBinAddr: 0x100005C04, symSize: 0x24 }
  - { offsetInCU: 0x8A14, offset: 0x8A14, size: 0x8, addend: 0x0, symName: __ZNSt8_Rb_treeIcSt4pairIKciESt10_Select1stIS2_ESt4lessIcESaIS2_EE14_M_insert_nodeEPSt18_Rb_tree_node_baseSA_PSt13_Rb_tree_nodeIS2_E, symObjAddr: 0x167C, symBinAddr: 0x100005B1C, symSize: 0xD4 }
  - { offsetInCU: 0x8A1C, offset: 0x8A1C, size: 0x8, addend: 0x0, symName: __ZN9__gnu_cxx16__aligned_membufISt4pairIKciEE7_M_addrEv, symObjAddr: 0x1750, symBinAddr: 0x100005BF0, symSize: 0x14 }
  - { offsetInCU: 0x8A93, offset: 0x8A93, size: 0x8, addend: 0x0, symName: __ZNSt8_Rb_treeIcSt4pairIKciESt10_Select1stIS2_ESt4lessIcESaIS2_EE6_S_keyEPKSt13_Rb_tree_nodeIS2_E, symObjAddr: 0x1654, symBinAddr: 0x100005AF4, symSize: 0x28 }
  - { offsetInCU: 0x8A9B, offset: 0x8A9B, size: 0x8, addend: 0x0, symName: __ZNSt8_Rb_treeIcSt4pairIKciESt10_Select1stIS2_ESt4lessIcESaIS2_EE14_M_insert_nodeEPSt18_Rb_tree_node_baseSA_PSt13_Rb_tree_nodeIS2_E, symObjAddr: 0x167C, symBinAddr: 0x100005B1C, symSize: 0xD4 }
  - { offsetInCU: 0x8AC5, offset: 0x8AC5, size: 0x8, addend: 0x0, symName: __ZNSt17_Rb_tree_iteratorISt4pairIKciEEppEv, symObjAddr: 0x1624, symBinAddr: 0x100005AC4, symSize: 0x30 }
  - { offsetInCU: 0x8ACD, offset: 0x8ACD, size: 0x8, addend: 0x0, symName: __ZNSt8_Rb_treeIcSt4pairIKciESt10_Select1stIS2_ESt4lessIcESaIS2_EE6_S_keyEPKSt13_Rb_tree_nodeIS2_E, symObjAddr: 0x1654, symBinAddr: 0x100005AF4, symSize: 0x28 }
  - { offsetInCU: 0x8AF4, offset: 0x8AF4, size: 0x8, addend: 0x0, symName: __ZNSt17_Rb_tree_iteratorISt4pairIKciEEmmEv, symObjAddr: 0x15F4, symBinAddr: 0x100005A94, symSize: 0x30 }
  - { offsetInCU: 0x8AFC, offset: 0x8AFC, size: 0x8, addend: 0x0, symName: __ZNSt17_Rb_tree_iteratorISt4pairIKciEEppEv, symObjAddr: 0x1624, symBinAddr: 0x100005AC4, symSize: 0x30 }
  - { offsetInCU: 0x8BB6, offset: 0x8BB6, size: 0x8, addend: 0x0, symName: __ZNSt4pairIPSt18_Rb_tree_node_baseS1_EC1IRS1_S4_Lb1EEEOT_OT0_, symObjAddr: 0x15AC, symBinAddr: 0x100005A4C, symSize: 0x48 }
  - { offsetInCU: 0x8BBE, offset: 0x8BBE, size: 0x8, addend: 0x0, symName: __ZNSt17_Rb_tree_iteratorISt4pairIKciEEmmEv, symObjAddr: 0x15F4, symBinAddr: 0x100005A94, symSize: 0x30 }
  - { offsetInCU: 0x8BD8, offset: 0x8BD8, size: 0x8, addend: 0x0, symName: __ZNSt8_Rb_treeIcSt4pairIKciESt10_Select1stIS2_ESt4lessIcESaIS2_EE11_M_leftmostEv, symObjAddr: 0x1594, symBinAddr: 0x100005A34, symSize: 0x18 }
  - { offsetInCU: 0x8BE0, offset: 0x8BE0, size: 0x8, addend: 0x0, symName: __ZNSt4pairIPSt18_Rb_tree_node_baseS1_EC1IRS1_S4_Lb1EEEOT_OT0_, symObjAddr: 0x15AC, symBinAddr: 0x100005A4C, symSize: 0x48 }
  - { offsetInCU: 0x8C07, offset: 0x8C07, size: 0x8, addend: 0x0, symName: __ZNSt8_Rb_treeIcSt4pairIKciESt10_Select1stIS2_ESt4lessIcESaIS2_EE24_M_get_insert_unique_posERS1_, symObjAddr: 0x1434, symBinAddr: 0x1000058D4, symSize: 0x160 }
  - { offsetInCU: 0x8C0F, offset: 0x8C0F, size: 0x8, addend: 0x0, symName: __ZNSt8_Rb_treeIcSt4pairIKciESt10_Select1stIS2_ESt4lessIcESaIS2_EE11_M_leftmostEv, symObjAddr: 0x1594, symBinAddr: 0x100005A34, symSize: 0x18 }
  - { offsetInCU: 0x8D34, offset: 0x8D34, size: 0x8, addend: 0x0, symName: __ZNSt4pairIPSt18_Rb_tree_node_baseS1_EC1IS1_S1_Lb1EEERKS1_S5_, symObjAddr: 0x13F8, symBinAddr: 0x100005898, symSize: 0x3C }
  - { offsetInCU: 0x8D3C, offset: 0x8D3C, size: 0x8, addend: 0x0, symName: __ZNSt8_Rb_treeIcSt4pairIKciESt10_Select1stIS2_ESt4lessIcESaIS2_EE24_M_get_insert_unique_posERS1_, symObjAddr: 0x1434, symBinAddr: 0x1000058D4, symSize: 0x160 }
  - { offsetInCU: 0x8D58, offset: 0x8D58, size: 0x8, addend: 0x0, symName: __ZNSt8_Rb_treeIcSt4pairIKciESt10_Select1stIS2_ESt4lessIcESaIS2_EE6_S_keyEPKSt18_Rb_tree_node_base, symObjAddr: 0x13DC, symBinAddr: 0x10000587C, symSize: 0x1C }
  - { offsetInCU: 0x8D60, offset: 0x8D60, size: 0x8, addend: 0x0, symName: __ZNSt4pairIPSt18_Rb_tree_node_baseS1_EC1IS1_S1_Lb1EEERKS1_S5_, symObjAddr: 0x13F8, symBinAddr: 0x100005898, symSize: 0x3C }
  - { offsetInCU: 0x8D8A, offset: 0x8D8A, size: 0x8, addend: 0x0, symName: __ZNSt8_Rb_treeIcSt4pairIKciESt10_Select1stIS2_ESt4lessIcESaIS2_EE12_M_rightmostEv, symObjAddr: 0x13C4, symBinAddr: 0x100005864, symSize: 0x18 }
  - { offsetInCU: 0x8D92, offset: 0x8D92, size: 0x8, addend: 0x0, symName: __ZNSt8_Rb_treeIcSt4pairIKciESt10_Select1stIS2_ESt4lessIcESaIS2_EE6_S_keyEPKSt18_Rb_tree_node_base, symObjAddr: 0x13DC, symBinAddr: 0x10000587C, symSize: 0x1C }
  - { offsetInCU: 0x8DB9, offset: 0x8DB9, size: 0x8, addend: 0x0, symName: __ZNKSt23_Rb_tree_const_iteratorISt4pairIKciEE13_M_const_castEv, symObjAddr: 0x139C, symBinAddr: 0x10000583C, symSize: 0x28 }
  - { offsetInCU: 0x8DC1, offset: 0x8DC1, size: 0x8, addend: 0x0, symName: __ZNSt8_Rb_treeIcSt4pairIKciESt10_Select1stIS2_ESt4lessIcESaIS2_EE12_M_rightmostEv, symObjAddr: 0x13C4, symBinAddr: 0x100005864, symSize: 0x18 }
  - { offsetInCU: 0x8DE8, offset: 0x8DE8, size: 0x8, addend: 0x0, symName: __ZNSt8_Rb_treeIcSt4pairIKciESt10_Select1stIS2_ESt4lessIcESaIS2_EE14_M_create_nodeIJRKSt21piecewise_construct_tSt5tupleIJRS1_EESD_IJEEEEEPSt13_Rb_tree_nodeIS2_EDpOT_, symObjAddr: 0x132C, symBinAddr: 0x1000057CC, symSize: 0x70 }
  - { offsetInCU: 0x8DF0, offset: 0x8DF0, size: 0x8, addend: 0x0, symName: __ZNKSt23_Rb_tree_const_iteratorISt4pairIKciEE13_M_const_castEv, symObjAddr: 0x139C, symBinAddr: 0x10000583C, symSize: 0x28 }
  - { offsetInCU: 0x8EC4, offset: 0x8EC4, size: 0x8, addend: 0x0, symName: __ZNSt10_Head_baseILm0ERKcLb0EEC2ES1_, symObjAddr: 0x1308, symBinAddr: 0x1000057A8, symSize: 0x24 }
  - { offsetInCU: 0x8ECC, offset: 0x8ECC, size: 0x8, addend: 0x0, symName: __ZNSt8_Rb_treeIcSt4pairIKciESt10_Select1stIS2_ESt4lessIcESaIS2_EE14_M_create_nodeIJRKSt21piecewise_construct_tSt5tupleIJRS1_EESD_IJEEEEEPSt13_Rb_tree_nodeIS2_EDpOT_, symObjAddr: 0x132C, symBinAddr: 0x1000057CC, symSize: 0x70 }
  - { offsetInCU: 0x8ED9, offset: 0x8ED9, size: 0x8, addend: 0x0, symName: __ZNSt8_Rb_treeIcSt4pairIKciESt10_Select1stIS2_ESt4lessIcESaIS2_EE14_M_lower_boundEPSt13_Rb_tree_nodeIS2_EPSt18_Rb_tree_node_baseRS1_, symObjAddr: 0x1268, symBinAddr: 0x100005708, symSize: 0xA0 }
  - { offsetInCU: 0x8EE1, offset: 0x8EE1, size: 0x8, addend: 0x0, symName: __ZNSt10_Head_baseILm0ERKcLb0EEC2ES1_, symObjAddr: 0x1308, symBinAddr: 0x1000057A8, symSize: 0x24 }
  - { offsetInCU: 0x8F44, offset: 0x8F44, size: 0x8, addend: 0x0, symName: __ZNSt8_Rb_treeIcSt4pairIKciESt10_Select1stIS2_ESt4lessIcESaIS2_EE6_M_endEv, symObjAddr: 0x1250, symBinAddr: 0x1000056F0, symSize: 0x18 }
  - { offsetInCU: 0x8F4C, offset: 0x8F4C, size: 0x8, addend: 0x0, symName: __ZNSt8_Rb_treeIcSt4pairIKciESt10_Select1stIS2_ESt4lessIcESaIS2_EE14_M_lower_boundEPSt13_Rb_tree_nodeIS2_EPSt18_Rb_tree_node_baseRS1_, symObjAddr: 0x1268, symBinAddr: 0x100005708, symSize: 0xA0 }
  - { offsetInCU: 0x8F73, offset: 0x8F73, size: 0x8, addend: 0x0, symName: __ZNSt8_Rb_treeIcSt4pairIKciESt10_Select1stIS2_ESt4lessIcESaIS2_EE11_M_put_nodeEPSt13_Rb_tree_nodeIS2_E, symObjAddr: 0x1204, symBinAddr: 0x1000056A4, symSize: 0x4C }
  - { offsetInCU: 0x8F7B, offset: 0x8F7B, size: 0x8, addend: 0x0, symName: __ZNSt8_Rb_treeIcSt4pairIKciESt10_Select1stIS2_ESt4lessIcESaIS2_EE6_M_endEv, symObjAddr: 0x1250, symBinAddr: 0x1000056F0, symSize: 0x18 }
  - { offsetInCU: 0x8FF4, offset: 0x8FF4, size: 0x8, addend: 0x0, symName: __ZNSt8_Rb_treeIcSt4pairIKciESt10_Select1stIS2_ESt4lessIcESaIS2_EE15_M_destroy_nodeEPSt13_Rb_tree_nodeIS2_E, symObjAddr: 0x11AC, symBinAddr: 0x10000564C, symSize: 0x58 }
  - { offsetInCU: 0x8FFC, offset: 0x8FFC, size: 0x8, addend: 0x0, symName: __ZNSt8_Rb_treeIcSt4pairIKciESt10_Select1stIS2_ESt4lessIcESaIS2_EE11_M_put_nodeEPSt13_Rb_tree_nodeIS2_E, symObjAddr: 0x1204, symBinAddr: 0x1000056A4, symSize: 0x4C }
  - { offsetInCU: 0x90E6, offset: 0x90E6, size: 0x8, addend: 0x0, symName: __ZSt5equalISt23_Rb_tree_const_iteratorISt4pairIKciEES4_EbT_S5_T0_, symObjAddr: 0x117C, symBinAddr: 0x10000561C, symSize: 0x30 }
  - { offsetInCU: 0x90EE, offset: 0x90EE, size: 0x8, addend: 0x0, symName: __ZNSt8_Rb_treeIcSt4pairIKciESt10_Select1stIS2_ESt4lessIcESaIS2_EE15_M_destroy_nodeEPSt13_Rb_tree_nodeIS2_E, symObjAddr: 0x11AC, symBinAddr: 0x10000564C, symSize: 0x58 }
  - { offsetInCU: 0x911C, offset: 0x911C, size: 0x8, addend: 0x0, symName: __ZNKSt8_Rb_treeIcSt4pairIKciESt10_Select1stIS2_ESt4lessIcESaIS2_EE3endEv, symObjAddr: 0x1154, symBinAddr: 0x1000055F4, symSize: 0x28 }
  - { offsetInCU: 0x9124, offset: 0x9124, size: 0x8, addend: 0x0, symName: __ZSt5equalISt23_Rb_tree_const_iteratorISt4pairIKciEES4_EbT_S5_T0_, symObjAddr: 0x117C, symBinAddr: 0x10000561C, symSize: 0x30 }
  - { offsetInCU: 0x914B, offset: 0x914B, size: 0x8, addend: 0x0, symName: __ZNKSt8_Rb_treeIcSt4pairIKciESt10_Select1stIS2_ESt4lessIcESaIS2_EE5beginEv, symObjAddr: 0x112C, symBinAddr: 0x1000055CC, symSize: 0x28 }
  - { offsetInCU: 0x9153, offset: 0x9153, size: 0x8, addend: 0x0, symName: __ZNKSt8_Rb_treeIcSt4pairIKciESt10_Select1stIS2_ESt4lessIcESaIS2_EE3endEv, symObjAddr: 0x1154, symBinAddr: 0x1000055F4, symSize: 0x28 }
  - { offsetInCU: 0x917A, offset: 0x917A, size: 0x8, addend: 0x0, symName: __ZNKSt8_Rb_treeIcSt4pairIKciESt10_Select1stIS2_ESt4lessIcESaIS2_EE4sizeEv, symObjAddr: 0x1114, symBinAddr: 0x1000055B4, symSize: 0x18 }
  - { offsetInCU: 0x9182, offset: 0x9182, size: 0x8, addend: 0x0, symName: __ZNKSt8_Rb_treeIcSt4pairIKciESt10_Select1stIS2_ESt4lessIcESaIS2_EE5beginEv, symObjAddr: 0x112C, symBinAddr: 0x1000055CC, symSize: 0x28 }
  - { offsetInCU: 0x91A9, offset: 0x91A9, size: 0x8, addend: 0x0, symName: __ZN9__gnu_cxx16__aligned_membufISt4pairIKciEE6_M_ptrEv, symObjAddr: 0x10F8, symBinAddr: 0x100005598, symSize: 0x1C }
  - { offsetInCU: 0x91B1, offset: 0x91B1, size: 0x8, addend: 0x0, symName: __ZNKSt8_Rb_treeIcSt4pairIKciESt10_Select1stIS2_ESt4lessIcESaIS2_EE4sizeEv, symObjAddr: 0x1114, symBinAddr: 0x1000055B4, symSize: 0x18 }
  - { offsetInCU: 0x9243, offset: 0x9243, size: 0x8, addend: 0x0, symName: __ZNSt17_Rb_tree_iteratorISt4pairIKciEEC1EPSt18_Rb_tree_node_base, symObjAddr: 0x10D4, symBinAddr: 0x100005574, symSize: 0x24 }
  - { offsetInCU: 0x924B, offset: 0x924B, size: 0x8, addend: 0x0, symName: __ZN9__gnu_cxx16__aligned_membufISt4pairIKciEE6_M_ptrEv, symObjAddr: 0x10F8, symBinAddr: 0x100005598, symSize: 0x1C }
  - { offsetInCU: 0x923C, offset: 0x923C, size: 0x8, addend: 0x0, symName: __ZNSt8_Rb_treeIcSt4pairIKciESt10_Select1stIS2_ESt4lessIcESaIS2_EE10_Auto_node9_M_insertES0_IPSt18_Rb_tree_node_baseSB_E, symObjAddr: 0x1088, symBinAddr: 0x100005528, symSize: 0x4C }
  - { offsetInCU: 0x9244, offset: 0x9244, size: 0x8, addend: 0x0, symName: __ZNSt17_Rb_tree_iteratorISt4pairIKciEEC1EPSt18_Rb_tree_node_base, symObjAddr: 0x10D4, symBinAddr: 0x100005574, symSize: 0x24 }
  - { offsetInCU: 0x9293, offset: 0x9293, size: 0x8, addend: 0x0, symName: __ZNKSt8_Rb_treeIcSt4pairIKciESt10_Select1stIS2_ESt4lessIcESaIS2_EE10_Auto_node6_M_keyEv, symObjAddr: 0x1068, symBinAddr: 0x100005508, symSize: 0x20 }
  - { offsetInCU: 0x929B, offset: 0x929B, size: 0x8, addend: 0x0, symName: __ZNSt8_Rb_treeIcSt4pairIKciESt10_Select1stIS2_ESt4lessIcESaIS2_EE10_Auto_node9_M_insertES0_IPSt18_Rb_tree_node_baseSB_E, symObjAddr: 0x1088, symBinAddr: 0x100005528, symSize: 0x4C }
  - { offsetInCU: 0x92C2, offset: 0x92C2, size: 0x8, addend: 0x0, symName: __ZNSt8_Rb_treeIcSt4pairIKciESt10_Select1stIS2_ESt4lessIcESaIS2_EE29_M_get_insert_hint_unique_posESt23_Rb_tree_const_iteratorIS2_ERS1_, symObjAddr: 0xD30, symBinAddr: 0x1000051D0, symSize: 0x338 }
  - { offsetInCU: 0x92CA, offset: 0x92CA, size: 0x8, addend: 0x0, symName: __ZNKSt8_Rb_treeIcSt4pairIKciESt10_Select1stIS2_ESt4lessIcESaIS2_EE10_Auto_node6_M_keyEv, symObjAddr: 0x1068, symBinAddr: 0x100005508, symSize: 0x20 }
  - { offsetInCU: 0x93F8, offset: 0x93F8, size: 0x8, addend: 0x0, symName: __ZNSt8_Rb_treeIcSt4pairIKciESt10_Select1stIS2_ESt4lessIcESaIS2_EE10_Auto_nodeD1Ev, symObjAddr: 0xCEC, symBinAddr: 0x10000518C, symSize: 0x44 }
  - { offsetInCU: 0x9400, offset: 0x9400, size: 0x8, addend: 0x0, symName: __ZNSt8_Rb_treeIcSt4pairIKciESt10_Select1stIS2_ESt4lessIcESaIS2_EE29_M_get_insert_hint_unique_posESt23_Rb_tree_const_iteratorIS2_ERS1_, symObjAddr: 0xD30, symBinAddr: 0x1000051D0, symSize: 0x338 }
  - { offsetInCU: 0x94D0, offset: 0x94D0, size: 0x8, addend: 0x0, symName: __ZNSt8_Rb_treeIcSt4pairIKciESt10_Select1stIS2_ESt4lessIcESaIS2_EE10_Auto_nodeC1IJRKSt21piecewise_construct_tSt5tupleIJRS1_EESE_IJEEEEERS8_DpOT_, symObjAddr: 0xC70, symBinAddr: 0x100005110, symSize: 0x7C }
  - { offsetInCU: 0x94D8, offset: 0x94D8, size: 0x8, addend: 0x0, symName: __ZNSt8_Rb_treeIcSt4pairIKciESt10_Select1stIS2_ESt4lessIcESaIS2_EE10_Auto_nodeD1Ev, symObjAddr: 0xCEC, symBinAddr: 0x10000518C, symSize: 0x44 }
  - { offsetInCU: 0x951F, offset: 0x951F, size: 0x8, addend: 0x0, symName: __ZSt7forwardISt5tupleIJEEEOT_RNSt16remove_referenceIS2_E4typeE, symObjAddr: 0xC5C, symBinAddr: 0x1000050FC, symSize: 0x14 }
  - { offsetInCU: 0x9527, offset: 0x9527, size: 0x8, addend: 0x0, symName: __ZNSt8_Rb_treeIcSt4pairIKciESt10_Select1stIS2_ESt4lessIcESaIS2_EE10_Auto_nodeC1IJRKSt21piecewise_construct_tSt5tupleIJRS1_EESE_IJEEEEERS8_DpOT_, symObjAddr: 0xC70, symBinAddr: 0x100005110, symSize: 0x7C }
  - { offsetInCU: 0x9581, offset: 0x9581, size: 0x8, addend: 0x0, symName: __ZSt7forwardISt5tupleIJRKcEEEOT_RNSt16remove_referenceIS4_E4typeE, symObjAddr: 0xC48, symBinAddr: 0x1000050E8, symSize: 0x14 }
  - { offsetInCU: 0x9589, offset: 0x9589, size: 0x8, addend: 0x0, symName: __ZSt7forwardISt5tupleIJEEEOT_RNSt16remove_referenceIS2_E4typeE, symObjAddr: 0xC5C, symBinAddr: 0x1000050FC, symSize: 0x14 }
  - { offsetInCU: 0x95EA, offset: 0x95EA, size: 0x8, addend: 0x0, symName: __ZSt7forwardIRKSt21piecewise_construct_tEOT_RNSt16remove_referenceIS3_E4typeE, symObjAddr: 0xC34, symBinAddr: 0x1000050D4, symSize: 0x14 }
  - { offsetInCU: 0x95F2, offset: 0x95F2, size: 0x8, addend: 0x0, symName: __ZSt7forwardISt5tupleIJRKcEEEOT_RNSt16remove_referenceIS4_E4typeE, symObjAddr: 0xC48, symBinAddr: 0x1000050E8, symSize: 0x14 }
  - { offsetInCU: 0x960F, offset: 0x960F, size: 0x8, addend: 0x0, symName: __ZNSt11_Tuple_implILm0EJRKcEEC2ES1_, symObjAddr: 0xC0C, symBinAddr: 0x1000050AC, symSize: 0x28 }
  - { offsetInCU: 0x9617, offset: 0x9617, size: 0x8, addend: 0x0, symName: __ZSt7forwardIRKSt21piecewise_construct_tEOT_RNSt16remove_referenceIS3_E4typeE, symObjAddr: 0xC34, symBinAddr: 0x1000050D4, symSize: 0x14 }
  - { offsetInCU: 0x9625, offset: 0x9625, size: 0x8, addend: 0x0, symName: __ZNKSt8_Rb_treeIcSt4pairIKciESt10_Select1stIS2_ESt4lessIcESaIS2_EE8key_compEv, symObjAddr: 0xBF4, symBinAddr: 0x100005094, symSize: 0x18 }
  - { offsetInCU: 0x962D, offset: 0x962D, size: 0x8, addend: 0x0, symName: __ZNSt11_Tuple_implILm0EJRKcEEC2ES1_, symObjAddr: 0xC0C, symBinAddr: 0x1000050AC, symSize: 0x28 }
  - { offsetInCU: 0x9654, offset: 0x9654, size: 0x8, addend: 0x0, symName: __ZNSt8_Rb_treeIcSt4pairIKciESt10_Select1stIS2_ESt4lessIcESaIS2_EE11lower_boundERS1_, symObjAddr: 0xBAC, symBinAddr: 0x10000504C, symSize: 0x48 }
  - { offsetInCU: 0x965C, offset: 0x965C, size: 0x8, addend: 0x0, symName: __ZNKSt8_Rb_treeIcSt4pairIKciESt10_Select1stIS2_ESt4lessIcESaIS2_EE8key_compEv, symObjAddr: 0xBF4, symBinAddr: 0x100005094, symSize: 0x18 }
  - { offsetInCU: 0x9697, offset: 0x9697, size: 0x8, addend: 0x0, symName: __ZNKSt8_Rb_treeIcSt4pairIKciESt10_Select1stIS2_ESt4lessIcESaIS2_EE9_M_mbeginEv, symObjAddr: 0xB94, symBinAddr: 0x100005034, symSize: 0x18 }
  - { offsetInCU: 0x969F, offset: 0x969F, size: 0x8, addend: 0x0, symName: __ZNSt8_Rb_treeIcSt4pairIKciESt10_Select1stIS2_ESt4lessIcESaIS2_EE11lower_boundERS1_, symObjAddr: 0xBAC, symBinAddr: 0x10000504C, symSize: 0x48 }
  - { offsetInCU: 0x96C6, offset: 0x96C6, size: 0x8, addend: 0x0, symName: __ZNSt8_Rb_treeIcSt4pairIKciESt10_Select1stIS2_ESt4lessIcESaIS2_EE12_M_drop_nodeEPSt13_Rb_tree_nodeIS2_E, symObjAddr: 0xB60, symBinAddr: 0x100005000, symSize: 0x34 }
  - { offsetInCU: 0x96CE, offset: 0x96CE, size: 0x8, addend: 0x0, symName: __ZNKSt8_Rb_treeIcSt4pairIKciESt10_Select1stIS2_ESt4lessIcESaIS2_EE9_M_mbeginEv, symObjAddr: 0xB94, symBinAddr: 0x100005034, symSize: 0x18 }
  - { offsetInCU: 0x9709, offset: 0x9709, size: 0x8, addend: 0x0, symName: __ZNSt8_Rb_treeIcSt4pairIKciESt10_Select1stIS2_ESt4lessIcESaIS2_EE7_S_leftEPSt18_Rb_tree_node_base, symObjAddr: 0xB48, symBinAddr: 0x100004FE8, symSize: 0x18 }
  - { offsetInCU: 0x9711, offset: 0x9711, size: 0x8, addend: 0x0, symName: __ZNSt8_Rb_treeIcSt4pairIKciESt10_Select1stIS2_ESt4lessIcESaIS2_EE12_M_drop_nodeEPSt13_Rb_tree_nodeIS2_E, symObjAddr: 0xB60, symBinAddr: 0x100005000, symSize: 0x34 }
  - { offsetInCU: 0x973B, offset: 0x973B, size: 0x8, addend: 0x0, symName: __ZNSt8_Rb_treeIcSt4pairIKciESt10_Select1stIS2_ESt4lessIcESaIS2_EE8_S_rightEPSt18_Rb_tree_node_base, symObjAddr: 0xB30, symBinAddr: 0x100004FD0, symSize: 0x18 }
  - { offsetInCU: 0x9743, offset: 0x9743, size: 0x8, addend: 0x0, symName: __ZNSt8_Rb_treeIcSt4pairIKciESt10_Select1stIS2_ESt4lessIcESaIS2_EE7_S_leftEPSt18_Rb_tree_node_base, symObjAddr: 0xB48, symBinAddr: 0x100004FE8, symSize: 0x18 }
  - { offsetInCU: 0x97D9, offset: 0x97D9, size: 0x8, addend: 0x0, symName: __ZSteqRKSt8_Rb_treeIcSt4pairIKciESt10_Select1stIS2_ESt4lessIcESaIS2_EESA_, symObjAddr: 0xAA8, symBinAddr: 0x100004F48, symSize: 0x88 }
  - { offsetInCU: 0x97E1, offset: 0x97E1, size: 0x8, addend: 0x0, symName: __ZNSt8_Rb_treeIcSt4pairIKciESt10_Select1stIS2_ESt4lessIcESaIS2_EE8_S_rightEPSt18_Rb_tree_node_base, symObjAddr: 0xB30, symBinAddr: 0x100004FD0, symSize: 0x18 }
  - { offsetInCU: 0x97D9, offset: 0x97D9, size: 0x8, addend: 0x0, symName: __ZNSt13_Rb_tree_nodeISt4pairIKciEE9_M_valptrEv, symObjAddr: 0xA88, symBinAddr: 0x100004F28, symSize: 0x20 }
  - { offsetInCU: 0x97E1, offset: 0x97E1, size: 0x8, addend: 0x0, symName: __ZSteqRKSt8_Rb_treeIcSt4pairIKciESt10_Select1stIS2_ESt4lessIcESaIS2_EESA_, symObjAddr: 0xAA8, symBinAddr: 0x100004F48, symSize: 0x88 }
  - { offsetInCU: 0x9808, offset: 0x9808, size: 0x8, addend: 0x0, symName: __ZNSt8_Rb_treeIcSt4pairIKciESt10_Select1stIS2_ESt4lessIcESaIS2_EE3endEv, symObjAddr: 0xA60, symBinAddr: 0x100004F00, symSize: 0x28 }
  - { offsetInCU: 0x9810, offset: 0x9810, size: 0x8, addend: 0x0, symName: __ZNSt13_Rb_tree_nodeISt4pairIKciEE9_M_valptrEv, symObjAddr: 0xA88, symBinAddr: 0x100004F28, symSize: 0x20 }
  - { offsetInCU: 0x9837, offset: 0x9837, size: 0x8, addend: 0x0, symName: __ZNSt8_Rb_treeIcSt4pairIKciESt10_Select1stIS2_ESt4lessIcESaIS2_EE5beginEv, symObjAddr: 0xA38, symBinAddr: 0x100004ED8, symSize: 0x28 }
  - { offsetInCU: 0x983F, offset: 0x983F, size: 0x8, addend: 0x0, symName: __ZNSt8_Rb_treeIcSt4pairIKciESt10_Select1stIS2_ESt4lessIcESaIS2_EE3endEv, symObjAddr: 0xA60, symBinAddr: 0x100004F00, symSize: 0x28 }
  - { offsetInCU: 0x9866, offset: 0x9866, size: 0x8, addend: 0x0, symName: __ZNSt8_Rb_treeIcSt4pairIKciESt10_Select1stIS2_ESt4lessIcESaIS2_EE22_M_emplace_hint_uniqueIJRKSt21piecewise_construct_tSt5tupleIJRS1_EESD_IJEEEEESt17_Rb_tree_iteratorIS2_ESt23_Rb_tree_const_iteratorIS2_EDpOT_, symObjAddr: 0x960, symBinAddr: 0x100004E00, symSize: 0xD8 }
  - { offsetInCU: 0x986E, offset: 0x986E, size: 0x8, addend: 0x0, symName: __ZNSt8_Rb_treeIcSt4pairIKciESt10_Select1stIS2_ESt4lessIcESaIS2_EE5beginEv, symObjAddr: 0xA38, symBinAddr: 0x100004ED8, symSize: 0x28 }
  - { offsetInCU: 0x9995, offset: 0x9995, size: 0x8, addend: 0x0, symName: __ZNSt23_Rb_tree_const_iteratorISt4pairIKciEEC1ERKSt17_Rb_tree_iteratorIS2_E, symObjAddr: 0x938, symBinAddr: 0x100004DD8, symSize: 0x28 }
  - { offsetInCU: 0x999D, offset: 0x999D, size: 0x8, addend: 0x0, symName: __ZNSt8_Rb_treeIcSt4pairIKciESt10_Select1stIS2_ESt4lessIcESaIS2_EE22_M_emplace_hint_uniqueIJRKSt21piecewise_construct_tSt5tupleIJRS1_EESD_IJEEEEESt17_Rb_tree_iteratorIS2_ESt23_Rb_tree_const_iteratorIS2_EDpOT_, symObjAddr: 0x960, symBinAddr: 0x100004E00, symSize: 0xD8 }
  - { offsetInCU: 0x99DF, offset: 0x99DF, size: 0x8, addend: 0x0, symName: __ZNSt5tupleIJRKcEEC1ILb1ELb1EEES1_, symObjAddr: 0x910, symBinAddr: 0x100004DB0, symSize: 0x28 }
  - { offsetInCU: 0x99E7, offset: 0x99E7, size: 0x8, addend: 0x0, symName: __ZNSt23_Rb_tree_const_iteratorISt4pairIKciEEC1ERKSt17_Rb_tree_iteratorIS2_E, symObjAddr: 0x938, symBinAddr: 0x100004DD8, symSize: 0x28 }
  - { offsetInCU: 0x9A05, offset: 0x9A05, size: 0x8, addend: 0x0, symName: __ZNKSt4lessIcEclERKcS2_, symObjAddr: 0x8DC, symBinAddr: 0x100004D7C, symSize: 0x34 }
  - { offsetInCU: 0x9A0D, offset: 0x9A0D, size: 0x8, addend: 0x0, symName: __ZNSt5tupleIJRKcEEC1ILb1ELb1EEES1_, symObjAddr: 0x910, symBinAddr: 0x100004DB0, symSize: 0x28 }
  - { offsetInCU: 0x9A5C, offset: 0x9A5C, size: 0x8, addend: 0x0, symName: __ZNKSt17_Rb_tree_iteratorISt4pairIKciEEdeEv, symObjAddr: 0x8BC, symBinAddr: 0x100004D5C, symSize: 0x20 }
  - { offsetInCU: 0x9A64, offset: 0x9A64, size: 0x8, addend: 0x0, symName: __ZNKSt4lessIcEclERKcS2_, symObjAddr: 0x8DC, symBinAddr: 0x100004D7C, symSize: 0x34 }
  - { offsetInCU: 0x9A8B, offset: 0x9A8B, size: 0x8, addend: 0x0, symName: __ZNKSt3mapIciSt4lessIcESaISt4pairIKciEEE8key_compEv, symObjAddr: 0x890, symBinAddr: 0x100004D30, symSize: 0x2C }
  - { offsetInCU: 0x9A93, offset: 0x9A93, size: 0x8, addend: 0x0, symName: __ZNKSt17_Rb_tree_iteratorISt4pairIKciEEdeEv, symObjAddr: 0x8BC, symBinAddr: 0x100004D5C, symSize: 0x20 }
  - { offsetInCU: 0x9AF2, offset: 0x9AF2, size: 0x8, addend: 0x0, symName: __ZSteqRKSt17_Rb_tree_iteratorISt4pairIKciEES5_, symObjAddr: 0x860, symBinAddr: 0x100004D00, symSize: 0x30 }
  - { offsetInCU: 0x9AFA, offset: 0x9AFA, size: 0x8, addend: 0x0, symName: __ZNKSt3mapIciSt4lessIcESaISt4pairIKciEEE8key_compEv, symObjAddr: 0x890, symBinAddr: 0x100004D30, symSize: 0x2C }
  - { offsetInCU: 0x9B17, offset: 0x9B17, size: 0x8, addend: 0x0, symName: __ZNSt3mapIciSt4lessIcESaISt4pairIKciEEE11lower_boundERS3_, symObjAddr: 0x83C, symBinAddr: 0x100004CDC, symSize: 0x24 }
  - { offsetInCU: 0x9B1F, offset: 0x9B1F, size: 0x8, addend: 0x0, symName: __ZSteqRKSt17_Rb_tree_iteratorISt4pairIKciEES5_, symObjAddr: 0x860, symBinAddr: 0x100004D00, symSize: 0x30 }
  - { offsetInCU: 0x9B5A, offset: 0x9B5A, size: 0x8, addend: 0x0, symName: __ZNSt8_Rb_treeIcSt4pairIKciESt10_Select1stIS2_ESt4lessIcESaIS2_EE8_M_beginEv, symObjAddr: 0x820, symBinAddr: 0x100004CC0, symSize: 0x1C }
  - { offsetInCU: 0x9B62, offset: 0x9B62, size: 0x8, addend: 0x0, symName: __ZNSt3mapIciSt4lessIcESaISt4pairIKciEEE11lower_boundERS3_, symObjAddr: 0x83C, symBinAddr: 0x100004CDC, symSize: 0x24 }
  - { offsetInCU: 0x9B89, offset: 0x9B89, size: 0x8, addend: 0x0, symName: __ZNSt8_Rb_treeIcSt4pairIKciESt10_Select1stIS2_ESt4lessIcESaIS2_EE8_M_eraseEPSt13_Rb_tree_nodeIS2_E, symObjAddr: 0x7BC, symBinAddr: 0x100004C5C, symSize: 0x64 }
  - { offsetInCU: 0x9B91, offset: 0x9B91, size: 0x8, addend: 0x0, symName: __ZNSt8_Rb_treeIcSt4pairIKciESt10_Select1stIS2_ESt4lessIcESaIS2_EE8_M_beginEv, symObjAddr: 0x820, symBinAddr: 0x100004CC0, symSize: 0x1C }
  - { offsetInCU: 0x9C55, offset: 0x9C55, size: 0x8, addend: 0x0, symName: __ZNSt15__new_allocatorISt13_Rb_tree_nodeISt4pairIKciEEED2Ev, symObjAddr: 0x7A8, symBinAddr: 0x100004C48, symSize: 0x14 }
  - { offsetInCU: 0x9C5D, offset: 0x9C5D, size: 0x8, addend: 0x0, symName: __ZNSt8_Rb_treeIcSt4pairIKciESt10_Select1stIS2_ESt4lessIcESaIS2_EE8_M_eraseEPSt13_Rb_tree_nodeIS2_E, symObjAddr: 0x7BC, symBinAddr: 0x100004C5C, symSize: 0x64 }
  - { offsetInCU: 0x9C8C, offset: 0x9C8C, size: 0x8, addend: 0x0, symName: __ZNSt20_Rb_tree_key_compareISt4lessIcEEC2Ev, symObjAddr: 0x794, symBinAddr: 0x100004C34, symSize: 0x14 }
  - { offsetInCU: 0x9C94, offset: 0x9C94, size: 0x8, addend: 0x0, symName: __ZNSt15__new_allocatorISt13_Rb_tree_nodeISt4pairIKciEEED2Ev, symObjAddr: 0x7A8, symBinAddr: 0x100004C48, symSize: 0x14 }
  - { offsetInCU: 0x9D3F, offset: 0x9D3F, size: 0x8, addend: 0x0, symName: __ZSteqIciSt4lessIcESaISt4pairIKciEEEbRKSt3mapIT_T0_T1_T2_ESD_, symObjAddr: 0x76C, symBinAddr: 0x100004C0C, symSize: 0x28 }
  - { offsetInCU: 0x9D47, offset: 0x9D47, size: 0x8, addend: 0x0, symName: __ZNSt20_Rb_tree_key_compareISt4lessIcEEC2Ev, symObjAddr: 0x794, symBinAddr: 0x100004C34, symSize: 0x14 }
  - { offsetInCU: 0x9D2E, offset: 0x9D2E, size: 0x8, addend: 0x0, symName: __ZNKSt17_Rb_tree_iteratorISt4pairIKciEEptEv, symObjAddr: 0x74C, symBinAddr: 0x100004BEC, symSize: 0x20 }
  - { offsetInCU: 0x9D36, offset: 0x9D36, size: 0x8, addend: 0x0, symName: __ZSteqIciSt4lessIcESaISt4pairIKciEEEbRKSt3mapIT_T0_T1_T2_ESD_, symObjAddr: 0x76C, symBinAddr: 0x100004C0C, symSize: 0x28 }
  - { offsetInCU: 0x9D5D, offset: 0x9D5D, size: 0x8, addend: 0x0, symName: __ZNSt17_Rb_tree_iteratorISt4pairIKciEEppEi, symObjAddr: 0x70C, symBinAddr: 0x100004BAC, symSize: 0x40 }
  - { offsetInCU: 0x9D65, offset: 0x9D65, size: 0x8, addend: 0x0, symName: __ZNKSt17_Rb_tree_iteratorISt4pairIKciEEptEv, symObjAddr: 0x74C, symBinAddr: 0x100004BEC, symSize: 0x20 }
  - { offsetInCU: 0x9DE4, offset: 0x9DE4, size: 0x8, addend: 0x0, symName: __ZStneRKSt17_Rb_tree_iteratorISt4pairIKciEES5_, symObjAddr: 0x6DC, symBinAddr: 0x100004B7C, symSize: 0x30 }
  - { offsetInCU: 0x9DEC, offset: 0x9DEC, size: 0x8, addend: 0x0, symName: __ZNSt17_Rb_tree_iteratorISt4pairIKciEEppEi, symObjAddr: 0x70C, symBinAddr: 0x100004BAC, symSize: 0x40 }
  - { offsetInCU: 0x9DFF, offset: 0x9DFF, size: 0x8, addend: 0x0, symName: __ZNSt3mapIciSt4lessIcESaISt4pairIKciEEE3endEv, symObjAddr: 0x6C0, symBinAddr: 0x100004B60, symSize: 0x1C }
  - { offsetInCU: 0x9E07, offset: 0x9E07, size: 0x8, addend: 0x0, symName: __ZStneRKSt17_Rb_tree_iteratorISt4pairIKciEES5_, symObjAddr: 0x6DC, symBinAddr: 0x100004B7C, symSize: 0x30 }
  - { offsetInCU: 0x9E2E, offset: 0x9E2E, size: 0x8, addend: 0x0, symName: __ZNSt3mapIciSt4lessIcESaISt4pairIKciEEE5beginEv, symObjAddr: 0x6A4, symBinAddr: 0x100004B44, symSize: 0x1C }
  - { offsetInCU: 0x9E36, offset: 0x9E36, size: 0x8, addend: 0x0, symName: __ZNSt3mapIciSt4lessIcESaISt4pairIKciEEE3endEv, symObjAddr: 0x6C0, symBinAddr: 0x100004B60, symSize: 0x1C }
  - { offsetInCU: 0x9E5D, offset: 0x9E5D, size: 0x8, addend: 0x0, symName: __ZNSt3mapIciSt4lessIcESaISt4pairIKciEEEixERS3_, symObjAddr: 0x5B0, symBinAddr: 0x100004A50, symSize: 0xF4 }
  - { offsetInCU: 0x9E65, offset: 0x9E65, size: 0x8, addend: 0x0, symName: __ZNSt3mapIciSt4lessIcESaISt4pairIKciEEE5beginEv, symObjAddr: 0x6A4, symBinAddr: 0x100004B44, symSize: 0x1C }
  - { offsetInCU: 0x9F21, offset: 0x9F21, size: 0x8, addend: 0x0, symName: __ZNSt8_Rb_treeIcSt4pairIKciESt10_Select1stIS2_ESt4lessIcESaIS2_EED1Ev, symObjAddr: 0x57C, symBinAddr: 0x100004A1C, symSize: 0x34 }
  - { offsetInCU: 0x9F29, offset: 0x9F29, size: 0x8, addend: 0x0, symName: __ZNSt3mapIciSt4lessIcESaISt4pairIKciEEEixERS3_, symObjAddr: 0x5B0, symBinAddr: 0x100004A50, symSize: 0xF4 }
  - { offsetInCU: 0x9FA7, offset: 0x9FA7, size: 0x8, addend: 0x0, symName: __ZNSt8_Rb_treeIcSt4pairIKciESt10_Select1stIS2_ESt4lessIcESaIS2_EE13_Rb_tree_implIS6_Lb1EEC1Ev, symObjAddr: 0x538, symBinAddr: 0x1000049D8, symSize: 0x44 }
  - { offsetInCU: 0x9FAF, offset: 0x9FAF, size: 0x8, addend: 0x0, symName: __ZNSt8_Rb_treeIcSt4pairIKciESt10_Select1stIS2_ESt4lessIcESaIS2_EED1Ev, symObjAddr: 0x57C, symBinAddr: 0x100004A1C, symSize: 0x34 }
  - { offsetInCU: 0x9FCD, offset: 0x9FCD, size: 0x8, addend: 0x0, symName: _main, symObjAddr: 0x120, symBinAddr: 0x1000045C0, symSize: 0x418 }
  - { offsetInCU: 0x9FD5, offset: 0x9FD5, size: 0x8, addend: 0x0, symName: __ZNSt8_Rb_treeIcSt4pairIKciESt10_Select1stIS2_ESt4lessIcESaIS2_EE13_Rb_tree_implIS6_Lb1EEC1Ev, symObjAddr: 0x538, symBinAddr: 0x1000049D8, symSize: 0x44 }
  - { offsetInCU: 0xA1CE, offset: 0xA1CE, size: 0x8, addend: 0x0, symName: __ZNSt3mapIciSt4lessIcESaISt4pairIKciEEED1Ev, symObjAddr: 0x100, symBinAddr: 0x1000045A0, symSize: 0x20 }
  - { offsetInCU: 0xA1D6, offset: 0xA1D6, size: 0x8, addend: 0x0, symName: _main, symObjAddr: 0x120, symBinAddr: 0x1000045C0, symSize: 0x418 }
  - { offsetInCU: 0xA215, offset: 0xA215, size: 0x8, addend: 0x0, symName: __ZNSt3mapIciSt4lessIcESaISt4pairIKciEEEC1Ev, symObjAddr: 0xE0, symBinAddr: 0x100004580, symSize: 0x20 }
  - { offsetInCU: 0xA21D, offset: 0xA21D, size: 0x8, addend: 0x0, symName: __ZNSt3mapIciSt4lessIcESaISt4pairIKciEEED1Ev, symObjAddr: 0x100, symBinAddr: 0x1000045A0, symSize: 0x20 }
  - { offsetInCU: 0xA276, offset: 0xA276, size: 0x8, addend: 0x0, symName: __ZNSt8_Rb_treeIcSt4pairIKciESt10_Select1stIS2_ESt4lessIcESaIS2_EEC1Ev, symObjAddr: 0xC0, symBinAddr: 0x100004560, symSize: 0x20 }
  - { offsetInCU: 0xA27E, offset: 0xA27E, size: 0x8, addend: 0x0, symName: __ZNSt3mapIciSt4lessIcESaISt4pairIKciEEEC1Ev, symObjAddr: 0xE0, symBinAddr: 0x100004580, symSize: 0x20 }
  - { offsetInCU: 0xA2E7, offset: 0xA2E7, size: 0x8, addend: 0x0, symName: __ZNSt8_Rb_treeIcSt4pairIKciESt10_Select1stIS2_ESt4lessIcESaIS2_EE13_Rb_tree_implIS6_Lb1EED1Ev, symObjAddr: 0x94, symBinAddr: 0x100004534, symSize: 0x2C }
  - { offsetInCU: 0xA2EF, offset: 0xA2EF, size: 0x8, addend: 0x0, symName: __ZNSt8_Rb_treeIcSt4pairIKciESt10_Select1stIS2_ESt4lessIcESaIS2_EEC1Ev, symObjAddr: 0xC0, symBinAddr: 0x100004560, symSize: 0x20 }
  - { offsetInCU: 0xA2DD, offset: 0xA2DD, size: 0x8, addend: 0x0, symName: __ZNSt15_Rb_tree_header8_M_resetEv, symObjAddr: 0x58, symBinAddr: 0x1000044F8, symSize: 0x3C }
  - { offsetInCU: 0xA2E5, offset: 0xA2E5, size: 0x8, addend: 0x0, symName: __ZNSt8_Rb_treeIcSt4pairIKciESt10_Select1stIS2_ESt4lessIcESaIS2_EE13_Rb_tree_implIS6_Lb1EED1Ev, symObjAddr: 0x94, symBinAddr: 0x100004534, symSize: 0x2C }
  - { offsetInCU: 0xA340, offset: 0xA340, size: 0x8, addend: 0x0, symName: __ZNSt15_Rb_tree_headerC2Ev, symObjAddr: 0x30, symBinAddr: 0x1000044D0, symSize: 0x28 }
  - { offsetInCU: 0xA348, offset: 0xA348, size: 0x8, addend: 0x0, symName: __ZNSt15_Rb_tree_header8_M_resetEv, symObjAddr: 0x58, symBinAddr: 0x1000044F8, symSize: 0x3C }
  - { offsetInCU: 0xA361, offset: 0xA361, size: 0x8, addend: 0x0, symName: __ZdlPvS_, symObjAddr: 0x18, symBinAddr: 0x1000044B8, symSize: 0x18 }
  - { offsetInCU: 0xA369, offset: 0xA369, size: 0x8, addend: 0x0, symName: __ZNSt15_Rb_tree_headerC2Ev, symObjAddr: 0x30, symBinAddr: 0x1000044D0, symSize: 0x28 }
  - { offsetInCU: 0xA39E, offset: 0xA39E, size: 0x8, addend: 0x0, symName: __ZnwmPv, symObjAddr: 0x0, symBinAddr: 0x1000044A0, symSize: 0x18 }
  - { offsetInCU: 0xA3A6, offset: 0xA3A6, size: 0x8, addend: 0x0, symName: __ZdlPvS_, symObjAddr: 0x18, symBinAddr: 0x1000044B8, symSize: 0x18 }
...
